; Function Attrs: nounwind uwtable
define void @ff_thread_report_progress(ptr noundef readonly captures(none) %0, i32 noundef %1, i32 noundef %2) local_unnamed_addr #0 {
  %4 = getelementptr inbounds nuw i8, ptr %0, i64 24
  %5 = load ptr, ptr %4, align 8, !tbaa !131
  %.not = icmp eq ptr %5, null
  br i1 %.not, label %27, label %6

6:                                                ; preds = %3
  %7 = sext i32 %2 to i64
  %8 = getelementptr inbounds i32, ptr %5, i64 %7
  %9 = load atomic i32, ptr %8 monotonic, align 4
  %.not25 = icmp slt i32 %9, %1
  br i1 %.not25, label %10, label %27

10:                                               ; preds = %6
  %11 = getelementptr inbounds nuw i8, ptr %0, i64 8
  %12 = getelementptr inbounds [2 x ptr], ptr %11, i64 0, i64 %7
  %13 = load ptr, ptr %12, align 8, !tbaa !134
  %14 = getelementptr inbounds nuw i8, ptr %13, i64 40
  %15 = load ptr, ptr %14, align 8, !tbaa !4
  %16 = getelementptr inbounds nuw i8, ptr %15, i64 32
  %17 = load ptr, ptr %16, align 8, !tbaa !27
  %18 = getelementptr inbounds nuw i8, ptr %17, i64 312
  %19 = load atomic i32, ptr %18 monotonic, align 8
  %.not26 = icmp eq i32 %19, 0
  br i1 %.not26, label %21, label %20

20:                                               ; preds = %10
  tail call void (ptr, i32, ptr, ...) @av_log(ptr noundef nonnull %13, i32 noundef 48, ptr noundef nonnull @.str, ptr noundef nonnull %5, i32 noundef %1, i32 noundef %2) #11
  br label %21

21:                                               ; preds = %20, %10
  %22 = getelementptr inbounds nuw i8, ptr %17, i64 208
  %23 = tail call i32 @pthread_mutex_lock(ptr noundef nonnull %22) #11
  store atomic i32 %1, ptr %8 release, align 4
  %24 = getelementptr inbounds nuw i8, ptr %17, i64 72
  %25 = tail call i32 @pthread_cond_broadcast(ptr noundef nonnull %24) #11
  %26 = tail call i32 @pthread_mutex_unlock(ptr noundef nonnull %22) #11
  br label %27

27:                                               ; preds = %3, %6, %21
  ret void
}